(lp0
(lp1
S'2019-08-25'
p2
aS'7'
p3
aS'1'
p4
aa(lp5
S'2019-08-29'
p6
aS'4'
p7
aS'0'
p8
aa(lp9
S'2019-08-30'
p10
aS'5'
p11
ag8
aa(lp12
S'2019-09-04'
p13
aS'3'
p14
ag8
aa(lp15
S'2019-08-24'
p16
aS'6'
p17
ag4
aa(lp18
S'2019-08-28'
p19
ag14
ag8
aa(lp20
S'2019-09-03'
p21
aS'2'
p22
ag8
aa(lp23
S'2019-09-06'
p24
ag11
ag8
aa(lp25
S'2019-09-02'
p26
ag4
ag8
aa(lp27
S'2019-08-26'
p28
ag4
ag8
aa(lp29
S'2019-09-01'
p30
ag3
ag4
aa(lp31
S'2019-09-05'
p32
ag7
ag8
aa(lp33
S'2019-08-27'
p34
ag22
ag8
aa(lp35
S'2019-08-31'
p36
ag17
ag4
aa.